; Function Attrs: nounwind uwtable
define hidden range(i64 -3, -9223372036854775808) i64 @_PyDictKeys_StringLookupAndVersion(ptr noundef captures(none) %0, ptr noundef %1, ptr noundef writeonly captures(none) %2) local_unnamed_addr #0 {
  %4 = getelementptr i8, ptr %1, i64 8
  %.val = load ptr, ptr %4, align 8, !tbaa !25
  %.not.i = icmp eq ptr %.val, @PyUnicode_Type
  br i1 %.not.i, label %check_keys_unicode.exit, label %check_keys_unicode.exit.thread

check_keys_unicode.exit:                          ; preds = %3
  %5 = getelementptr inbounds nuw i8, ptr %0, i64 10
  %6 = load i8, ptr %5, align 2, !tbaa !41
  %.not = icmp eq i8 %6, 0
  br i1 %.not, label %check_keys_unicode.exit.thread, label %7

7:                                                ; preds = %check_keys_unicode.exit
  %8 = getelementptr i8, ptr %1, i64 24
  %.val.i = load i64, ptr %8, align 8, !tbaa !55
  %9 = icmp eq i64 %.val.i, -1
  br i1 %9, label %10, label %hash_unicode_key.exit

10:                                               ; preds = %7
  %11 = load ptr, ptr getelementptr inbounds nuw (i8, ptr @PyUnicode_Type, i64 120), align 8, !tbaa !139
  %12 = tail call i64 %11(ptr noundef nonnull %1) #23
  br label %hash_unicode_key.exit

hash_unicode_key.exit:                            ; preds = %7, %10
  %.0.i = phi i64 [ %12, %10 ], [ %.val.i, %7 ]
  %13 = tail call fastcc i64 @unicodekeys_lookup_unicode(ptr noundef nonnull %0, ptr noundef nonnull %1, i64 noundef %.0.i)
  %14 = getelementptr inbounds nuw i8, ptr %0, i64 12
  %15 = load i32, ptr %14, align 4, !tbaa !50
  %.not.i9 = icmp eq i32 %15, 0
  br i1 %.not.i9, label %16, label %_PyDictKeys_GetVersionForCurrentState.exit

16:                                               ; preds = %hash_unicode_key.exit
  %17 = tail call align 8 ptr @llvm.threadlocal.address.p0(ptr align 8 @_Py_tss_tstate)
  %18 = load ptr, ptr %17, align 8, !tbaa !4
  %19 = getelementptr inbounds nuw i8, ptr %18, i64 16
  %20 = load ptr, ptr %19, align 8, !tbaa !9
  %21 = getelementptr inbounds nuw i8, ptr %20, i64 79664
  %22 = load i32, ptr %21, align 8, !tbaa !141
  %23 = icmp eq i32 %22, 0
  br i1 %23, label %get_next_dict_keys_version.exit.i, label %24

24:                                               ; preds = %16
  %25 = add i32 %22, 1
  store i32 %25, ptr %21, align 8, !tbaa !141
  br label %get_next_dict_keys_version.exit.i

get_next_dict_keys_version.exit.i:                ; preds = %24, %16
  store i32 %22, ptr %14, align 4, !tbaa !50
  br label %_PyDictKeys_GetVersionForCurrentState.exit

_PyDictKeys_GetVersionForCurrentState.exit:       ; preds = %hash_unicode_key.exit, %get_next_dict_keys_version.exit.i
  %.0.i10 = phi i32 [ %22, %get_next_dict_keys_version.exit.i ], [ %15, %hash_unicode_key.exit ]
  store i32 %.0.i10, ptr %2, align 4, !tbaa !50
  br label %check_keys_unicode.exit.thread

check_keys_unicode.exit.thread:                   ; preds = %3, %check_keys_unicode.exit, %_PyDictKeys_GetVersionForCurrentState.exit
  %.0 = phi i64 [ %13, %_PyDictKeys_GetVersionForCurrentState.exit ], [ -3, %check_keys_unicode.exit ], [ -3, %3 ]
  ret i64 %.0
}